target datalayout = "e-m:e-p270:32:32-p271:32:32-p272:64:64-i64:64-i128:128-f80:128-n8:16:32:64-S128"
target triple = "x86_64-pc-linux-gnu"

@utf8_first_codepoint = internal constant [5 x i32] [i32 0, i32 0, i32 128, i32 2048, i32 65536], align 16

; Function Attrs: nounwind uwtable
define dso_local ptr @jvp_utf8_next(ptr noundef %0, ptr noundef %1, ptr noundef %2) #0 {
  %4 = alloca ptr, align 8
  %5 = alloca ptr, align 8
  %6 = alloca ptr, align 8
  %7 = alloca ptr, align 8
  %8 = alloca i32, align 4
  %9 = alloca i8, align 1
  %10 = alloca i32, align 4
  %11 = alloca i32, align 4
  %12 = alloca i32, align 4
  %13 = alloca i32, align 4
  store ptr %0, ptr %5, align 8, !tbaa !4
  store ptr %1, ptr %6, align 8, !tbaa !4
  store ptr %2, ptr %7, align 8, !tbaa !9
  %14 = load ptr, ptr %5, align 8, !tbaa !4
  %15 = load ptr, ptr %6, align 8, !tbaa !4
  %16 = icmp eq ptr %14, %15
  br i1 %16, label %17, label %18

17:                                               ; preds = %3
  store ptr null, ptr %4, align 8
  br label %128

18:                                               ; preds = %3
  call void @llvm.lifetime.start.p0(i64 4, ptr %8) #2
  store i32 -1, ptr %8, align 4, !tbaa !11
  call void @llvm.lifetime.start.p0(i64 1, ptr %9) #2
  %19 = load ptr, ptr %5, align 8, !tbaa !4
  %20 = getelementptr inbounds i8, ptr %19, i64 0
  %21 = load i8, ptr %20, align 1, !tbaa !13
  store i8 %21, ptr %9, align 1, !tbaa !13
  call void @llvm.lifetime.start.p0(i64 4, ptr %10) #2
  %22 = load i8, ptr %9, align 1, !tbaa !13
  %23 = zext i8 %22 to i64
  %24 = getelementptr inbounds nuw [256 x i8], ptr @utf8_coding_length, i64 0, i64 %23
  %25 = load i8, ptr %24, align 1, !tbaa !13
  %26 = zext i8 %25 to i32
  store i32 %26, ptr %10, align 4, !tbaa !11
  %27 = load i8, ptr %9, align 1, !tbaa !13
  %28 = zext i8 %27 to i32
  %29 = and i32 %28, 128
  %30 = icmp eq i32 %29, 0
  br i1 %30, label %31, label %34

31:                                               ; preds = %18
  %32 = load i8, ptr %9, align 1, !tbaa !13
  %33 = zext i8 %32 to i32
  store i32 %33, ptr %8, align 4, !tbaa !11
  store i32 1, ptr %10, align 4, !tbaa !11
  br label %121

34:                                               ; preds = %18
  %35 = load i32, ptr %10, align 4, !tbaa !11
  %36 = icmp eq i32 %35, 0
  br i1 %36, label %40, label %37

37:                                               ; preds = %34
  %38 = load i32, ptr %10, align 4, !tbaa !11
  %39 = icmp eq i32 %38, 255
  br i1 %39, label %40, label %41

40:                                               ; preds = %37, %34
  store i32 1, ptr %10, align 4, !tbaa !11
  br label %120

41:                                               ; preds = %37
  %42 = load ptr, ptr %5, align 8, !tbaa !4
  %43 = load i32, ptr %10, align 4, !tbaa !11
  %44 = sext i32 %43 to i64
  %45 = getelementptr inbounds i8, ptr %42, i64 %44
  %46 = load ptr, ptr %6, align 8, !tbaa !4
  %47 = icmp ugt ptr %45, %46
  br i1 %47, label %48, label %55

48:                                               ; preds = %41
  %49 = load ptr, ptr %6, align 8, !tbaa !4
  %50 = load ptr, ptr %5, align 8, !tbaa !4
  %51 = ptrtoint ptr %49 to i64
  %52 = ptrtoint ptr %50 to i64
  %53 = sub i64 %51, %52
  %54 = trunc i64 %53 to i32
  store i32 %54, ptr %10, align 4, !tbaa !11
  br label %119

55:                                               ; preds = %41
  %56 = load ptr, ptr %5, align 8, !tbaa !4
  %57 = getelementptr inbounds i8, ptr %56, i64 0
  %58 = load i8, ptr %57, align 1, !tbaa !13
  %59 = sext i8 %58 to i32
  %60 = load i8, ptr %9, align 1, !tbaa !13
  %61 = zext i8 %60 to i64
  %62 = getelementptr inbounds nuw [256 x i8], ptr @utf8_coding_bits, i64 0, i64 %61
  %63 = load i8, ptr %62, align 1, !tbaa !13
  %64 = zext i8 %63 to i32
  %65 = and i32 %59, %64
  store i32 %65, ptr %8, align 4, !tbaa !11
  call void @llvm.lifetime.start.p0(i64 4, ptr %11) #2
  store i32 1, ptr %11, align 4, !tbaa !11
  br label %66

66:                                               ; preds = %95, %55
  %67 = load i32, ptr %11, align 4, !tbaa !11
  %68 = load i32, ptr %10, align 4, !tbaa !11
  %69 = icmp slt i32 %67, %68
  br i1 %69, label %71, label %70

70:                                               ; preds = %66
  store i32 2, ptr %12, align 4
  br label %98

71:                                               ; preds = %66
  call void @llvm.lifetime.start.p0(i64 4, ptr %13) #2
  %72 = load ptr, ptr %5, align 8, !tbaa !4
  %73 = load i32, ptr %11, align 4, !tbaa !11
  %74 = sext i32 %73 to i64
  %75 = getelementptr inbounds i8, ptr %72, i64 %74
  %76 = load i8, ptr %75, align 1, !tbaa !13
  %77 = zext i8 %76 to i32
  store i32 %77, ptr %13, align 4, !tbaa !11
  %78 = load i32, ptr %13, align 4, !tbaa !11
  %79 = zext i32 %78 to i64
  %80 = getelementptr inbounds nuw [256 x i8], ptr @utf8_coding_length, i64 0, i64 %79
  %81 = load i8, ptr %80, align 1, !tbaa !13
  %82 = zext i8 %81 to i32
  %83 = icmp ne i32 %82, 255
  br i1 %83, label %84, label %86

84:                                               ; preds = %71
  store i32 -1, ptr %8, align 4, !tbaa !11
  %85 = load i32, ptr %11, align 4, !tbaa !11
  store i32 %85, ptr %10, align 4, !tbaa !11
  store i32 2, ptr %12, align 4
  br label %92

86:                                               ; preds = %71
  %87 = load i32, ptr %8, align 4, !tbaa !11
  %88 = shl i32 %87, 6
  %89 = load i32, ptr %13, align 4, !tbaa !11
  %90 = and i32 %89, 63
  %91 = or i32 %88, %90
  store i32 %91, ptr %8, align 4, !tbaa !11
  store i32 0, ptr %12, align 4
  br label %92

92:                                               ; preds = %86, %84
  call void @llvm.lifetime.end.p0(i64 4, ptr %13) #2
  %93 = load i32, ptr %12, align 4
  switch i32 %93, label %98 [
    i32 0, label %94
  ]

94:                                               ; preds = %92
  br label %95

95:                                               ; preds = %94
  %96 = load i32, ptr %11, align 4, !tbaa !11
  %97 = add nsw i32 %96, 1
  store i32 %97, ptr %11, align 4, !tbaa !11
  br label %66, !llvm.loop !16

98:                                               ; preds = %92, %70
  call void @llvm.lifetime.end.p0(i64 4, ptr %11) #2
  br label %99

99:                                               ; preds = %98
  %100 = load i32, ptr %8, align 4, !tbaa !11
  %101 = load i32, ptr %10, align 4, !tbaa !11
  %102 = sext i32 %101 to i64
  %103 = getelementptr inbounds [5 x i32], ptr @utf8_first_codepoint, i64 0, i64 %102
  %104 = load i32, ptr %103, align 4, !tbaa !11
  %105 = icmp slt i32 %100, %104
  br i1 %105, label %106, label %107

106:                                              ; preds = %99
  store i32 -1, ptr %8, align 4, !tbaa !11
  br label %107

107:                                              ; preds = %106, %99
  %108 = load i32, ptr %8, align 4, !tbaa !11
  %109 = icmp sle i32 55296, %108
  br i1 %109, label %110, label %114

110:                                              ; preds = %107
  %111 = load i32, ptr %8, align 4, !tbaa !11
  %112 = icmp sle i32 %111, 57343
  br i1 %112, label %113, label %114

113:                                              ; preds = %110
  store i32 -1, ptr %8, align 4, !tbaa !11
  br label %114

114:                                              ; preds = %113, %110, %107
  %115 = load i32, ptr %8, align 4, !tbaa !11
  %116 = icmp sgt i32 %115, 1114111
  br i1 %116, label %117, label %118

117:                                              ; preds = %114
  store i32 -1, ptr %8, align 4, !tbaa !11
  br label %118

118:                                              ; preds = %117, %114
  br label %119

119:                                              ; preds = %118, %48
  br label %120

120:                                              ; preds = %119, %40
  br label %121

121:                                              ; preds = %120, %31
  %122 = load i32, ptr %8, align 4, !tbaa !11
  %123 = load ptr, ptr %7, align 8, !tbaa !9
  store i32 %122, ptr %123, align 4, !tbaa !11
  %124 = load ptr, ptr %5, align 8, !tbaa !4
  %125 = load i32, ptr %10, align 4, !tbaa !11
  %126 = sext i32 %125 to i64
  %127 = getelementptr inbounds i8, ptr %124, i64 %126
  store ptr %127, ptr %4, align 8
  store i32 1, ptr %12, align 4
  call void @llvm.lifetime.end.p0(i64 4, ptr %10) #2
  call void @llvm.lifetime.end.p0(i64 1, ptr %9) #2
  call void @llvm.lifetime.end.p0(i64 4, ptr %8) #2
  br label %128

128:                                              ; preds = %121, %17
  %129 = load ptr, ptr %4, align 8
  ret ptr %129
}