; Function Attrs: nofree norecurse nosync nounwind memory(argmem: readwrite) uwtable
define dso_local ptr @jvp_utf8_next(ptr noundef %0, ptr noundef %1, ptr noundef writeonly captures(none) %2) local_unnamed_addr #0 {
  %4 = icmp eq ptr %0, %1
  br i1 %4, label %51, label %5

5:                                                ; preds = %3
  %6 = load i8, ptr %0, align 1, !tbaa !4
  %7 = zext i8 %6 to i64
  %8 = getelementptr inbounds nuw [256 x i8], ptr @utf8_coding_length, i64 0, i64 %7
  %9 = load i8, ptr %8, align 1, !tbaa !4
  %10 = zext i8 %9 to i32
  %11 = icmp sgt i8 %6, -1
  br i1 %11, label %12, label %14

12:                                               ; preds = %5
  %13 = zext nneg i8 %6 to i32
  br label %48

14:                                               ; preds = %5
  %15 = add i8 %9, 1
  %or.cond = icmp ult i8 %15, 2
  br i1 %or.cond, label %48, label %16

16:                                               ; preds = %14
  %17 = zext i8 %9 to i64
  %18 = getelementptr inbounds nuw i8, ptr %0, i64 %17
  %19 = icmp ugt ptr %18, %1
  br i1 %19, label %20, label %25

20:                                               ; preds = %16
  %21 = ptrtoint ptr %1 to i64
  %22 = ptrtoint ptr %0 to i64
  %23 = sub i64 %21, %22
  %24 = trunc i64 %23 to i32
  br label %48

25:                                               ; preds = %16
  %26 = getelementptr inbounds nuw [256 x i8], ptr @utf8_coding_bits, i64 0, i64 %7
  %27 = load i8, ptr %26, align 1, !tbaa !4
  %28 = and i8 %27, %6
  %29 = zext i8 %28 to i32
  %30 = icmp ugt i8 %9, 1
  br i1 %30, label %.lr.ph.preheader, label %._crit_edge

.lr.ph.preheader:                                 ; preds = %25
  %wide.trip.count = zext i8 %9 to i64
  br label %.lr.ph

.lr.ph:                                           ; preds = %.lr.ph.preheader, %36
  %indvars.iv = phi i64 [ 1, %.lr.ph.preheader ], [ %indvars.iv.next, %36 ]
  %.14349 = phi i32 [ %29, %.lr.ph.preheader ], [ %40, %36 ]
  %31 = getelementptr inbounds nuw i8, ptr %0, i64 %indvars.iv
  %32 = load i8, ptr %31, align 1, !tbaa !4
  %33 = zext i8 %32 to i64
  %34 = getelementptr inbounds nuw [256 x i8], ptr @utf8_coding_length, i64 0, i64 %33
  %35 = load i8, ptr %34, align 1, !tbaa !4
  %.not = icmp eq i8 %35, -1
  br i1 %.not, label %36, label %._crit_edge.loopexit.split.loop.exit56

36:                                               ; preds = %.lr.ph
  %37 = shl i32 %.14349, 6
  %38 = and i8 %32, 63
  %39 = zext nneg i8 %38 to i32
  %40 = or disjoint i32 %37, %39
  %indvars.iv.next = add nuw nsw i64 %indvars.iv, 1
  %exitcond.not = icmp eq i64 %indvars.iv.next, %wide.trip.count
  br i1 %exitcond.not, label %._crit_edge, label %.lr.ph, !llvm.loop !11

._crit_edge.loopexit.split.loop.exit56:           ; preds = %.lr.ph
  %41 = trunc nuw nsw i64 %indvars.iv to i32
  br label %._crit_edge

._crit_edge:                                      ; preds = %36, %._crit_edge.loopexit.split.loop.exit56, %25
  %.244 = phi i32 [ %29, %25 ], [ -1, %._crit_edge.loopexit.split.loop.exit56 ], [ %40, %36 ]
  %.2 = phi i32 [ %10, %25 ], [ %41, %._crit_edge.loopexit.split.loop.exit56 ], [ %10, %36 ]
  %42 = zext nneg i32 %.2 to i64
  %43 = getelementptr inbounds nuw [5 x i32], ptr @utf8_first_codepoint, i64 0, i64 %42
  %44 = load i32, ptr %43, align 4, !tbaa !9
  %45 = icmp slt i32 %.244, %44
  %spec.store.select4 = select i1 %45, i32 -1, i32 %.244
  %46 = and i32 %spec.store.select4, -2048
  %or.cond3 = icmp eq i32 %46, 55296
  %spec.store.select5 = select i1 %or.cond3, i32 -1, i32 %spec.store.select4
  %47 = icmp sgt i32 %spec.store.select5, 1114111
  %spec.store.select = select i1 %47, i32 -1, i32 %spec.store.select5
  br label %48

48:                                               ; preds = %14, %._crit_edge, %20, %12
  %.042 = phi i32 [ %13, %12 ], [ -1, %20 ], [ %spec.store.select, %._crit_edge ], [ -1, %14 ]
  %.041 = phi i32 [ 1, %12 ], [ %24, %20 ], [ %.2, %._crit_edge ], [ 1, %14 ]
  store i32 %.042, ptr %2, align 4, !tbaa !9
  %49 = sext i32 %.041 to i64
  %50 = getelementptr inbounds i8, ptr %0, i64 %49
  br label %51

51:                                               ; preds = %3, %48
  %.0 = phi ptr [ %50, %48 ], [ null, %3 ]
  ret ptr %.0
}